; Function Attrs: mustprogress uwtable
define noundef zeroext i1 @_ZN5Ipopt13RestoIpoptNLP20IntermediateCallBackENS_13AlgorithmModeEiddddddddiNS_8SmartPtrIKNS_9IpoptDataEEENS2_INS_25IpoptCalculatedQuantitiesEEE(ptr nocapture noundef nonnull readonly align 8 dereferenceable(320) %0, i32 noundef %1, i32 noundef %2, double noundef %3, double noundef %4, double noundef %5, double noundef %6, double noundef %7, double noundef %8, double noundef %9, double noundef %10, i32 noundef %11, ptr nocapture noundef readonly %12, ptr nocapture noundef readonly %13) unnamed_addr #4 align 2 personality ptr @__gxx_personality_v0 {
  %15 = alloca %"class.Ipopt::SmartPtr.114", align 8
  %16 = alloca %"class.Ipopt::SmartPtr.13", align 8
  %17 = getelementptr inbounds i8, ptr %0, i64 24
  %18 = load ptr, ptr %17, align 8
  %19 = load ptr, ptr %12, align 8
  %.not.i.i.i = icmp eq ptr %19, null
  br i1 %.not.i.i.i, label %_ZN5Ipopt8SmartPtrIKNS_9IpoptDataEEC2ERKS3_.exit, label %20

20:                                               ; preds = %14
  %21 = getelementptr inbounds i8, ptr %19, i64 8
  %22 = load i32, ptr %21, align 8
  %23 = add nsw i32 %22, 1
  store i32 %23, ptr %21, align 8
  br label %_ZN5Ipopt8SmartPtrIKNS_9IpoptDataEEC2ERKS3_.exit

_ZN5Ipopt8SmartPtrIKNS_9IpoptDataEEC2ERKS3_.exit: ; preds = %20, %14
  store ptr %19, ptr %15, align 8
  %24 = load ptr, ptr %13, align 8
  %.not.i.i.i15 = icmp eq ptr %24, null
  br i1 %.not.i.i.i15, label %29, label %25

25:                                               ; preds = %_ZN5Ipopt8SmartPtrIKNS_9IpoptDataEEC2ERKS3_.exit
  %26 = getelementptr inbounds i8, ptr %24, i64 8
  %27 = load i32, ptr %26, align 8
  %28 = add nsw i32 %27, 1
  store i32 %28, ptr %26, align 8
  br label %29

29:                                               ; preds = %_ZN5Ipopt8SmartPtrIKNS_9IpoptDataEEC2ERKS3_.exit, %25
  store ptr %24, ptr %16, align 8
  %30 = load ptr, ptr %18, align 8
  %31 = getelementptr inbounds i8, ptr %30, i64 296
  %32 = load ptr, ptr %31, align 8
  %33 = invoke noundef zeroext i1 %32(ptr noundef nonnull align 8 dereferenceable(24) %18, i32 noundef %1, i32 noundef %2, double noundef %3, double noundef %4, double noundef %5, double noundef %6, double noundef %7, double noundef %8, double noundef %9, double noundef %10, i32 noundef %11, ptr noundef nonnull %15, ptr noundef nonnull %16)
          to label %34 unwind label %55

34:                                               ; preds = %29
  %35 = load ptr, ptr %16, align 8
  %.not.i.i = icmp eq ptr %35, null
  br i1 %.not.i.i, label %_ZN5Ipopt8SmartPtrINS_25IpoptCalculatedQuantitiesEED2Ev.exit, label %36

36:                                               ; preds = %34
  %37 = getelementptr inbounds i8, ptr %35, i64 8
  %38 = load i32, ptr %37, align 8
  %39 = add nsw i32 %38, -1
  store i32 %39, ptr %37, align 8
  %40 = icmp eq i32 %39, 0
  br i1 %40, label %41, label %_ZN5Ipopt8SmartPtrINS_25IpoptCalculatedQuantitiesEED2Ev.exit

41:                                               ; preds = %36
  %42 = load ptr, ptr %35, align 8
  %43 = getelementptr inbounds i8, ptr %42, i64 8
  %44 = load ptr, ptr %43, align 8
  call void %44(ptr noundef nonnull align 8 dereferenceable(2185) %35) #17
  br label %_ZN5Ipopt8SmartPtrINS_25IpoptCalculatedQuantitiesEED2Ev.exit

_ZN5Ipopt8SmartPtrINS_25IpoptCalculatedQuantitiesEED2Ev.exit: ; preds = %34, %36, %41
  %45 = load ptr, ptr %15, align 8
  %.not.i.i18 = icmp eq ptr %45, null
  br i1 %.not.i.i18, label %_ZN5Ipopt8SmartPtrIKNS_9IpoptDataEED2Ev.exit, label %46

46:                                               ; preds = %_ZN5Ipopt8SmartPtrINS_25IpoptCalculatedQuantitiesEED2Ev.exit
  %47 = getelementptr inbounds i8, ptr %45, i64 8
  %48 = load i32, ptr %47, align 8
  %49 = add nsw i32 %48, -1
  store i32 %49, ptr %47, align 8
  %50 = icmp eq i32 %49, 0
  br i1 %50, label %51, label %_ZN5Ipopt8SmartPtrIKNS_9IpoptDataEED2Ev.exit

51:                                               ; preds = %46
  %52 = load ptr, ptr %45, align 8
  %53 = getelementptr inbounds i8, ptr %52, i64 8
  %54 = load ptr, ptr %53, align 8
  call void %54(ptr noundef nonnull align 8 dereferenceable(2232) %45) #17
  br label %_ZN5Ipopt8SmartPtrIKNS_9IpoptDataEED2Ev.exit

_ZN5Ipopt8SmartPtrIKNS_9IpoptDataEED2Ev.exit:     ; preds = %_ZN5Ipopt8SmartPtrINS_25IpoptCalculatedQuantitiesEED2Ev.exit, %46, %51
  ret i1 %33

55:                                               ; preds = %29
  %56 = landingpad { ptr, i32 }
          cleanup
  %57 = load ptr, ptr %16, align 8
  %.not.i.i19 = icmp eq ptr %57, null
  br i1 %.not.i.i19, label %_ZN5Ipopt8SmartPtrINS_25IpoptCalculatedQuantitiesEED2Ev.exit20, label %58

58:                                               ; preds = %55
  %59 = getelementptr inbounds i8, ptr %57, i64 8
  %60 = load i32, ptr %59, align 8
  %61 = add nsw i32 %60, -1
  store i32 %61, ptr %59, align 8
  %62 = icmp eq i32 %61, 0
  br i1 %62, label %63, label %_ZN5Ipopt8SmartPtrINS_25IpoptCalculatedQuantitiesEED2Ev.exit20

63:                                               ; preds = %58
  %64 = load ptr, ptr %57, align 8
  %65 = getelementptr inbounds i8, ptr %64, i64 8
  %66 = load ptr, ptr %65, align 8
  call void %66(ptr noundef nonnull align 8 dereferenceable(2185) %57) #17
  br label %_ZN5Ipopt8SmartPtrINS_25IpoptCalculatedQuantitiesEED2Ev.exit20

_ZN5Ipopt8SmartPtrINS_25IpoptCalculatedQuantitiesEED2Ev.exit20: ; preds = %63, %58, %55
  %67 = load ptr, ptr %15, align 8
  %.not.i.i21 = icmp eq ptr %67, null
  br i1 %.not.i.i21, label %_ZN5Ipopt8SmartPtrIKNS_9IpoptDataEED2Ev.exit22, label %68

68:                                               ; preds = %_ZN5Ipopt8SmartPtrINS_25IpoptCalculatedQuantitiesEED2Ev.exit20
  %69 = getelementptr inbounds i8, ptr %67, i64 8
  %70 = load i32, ptr %69, align 8
  %71 = add nsw i32 %70, -1
  store i32 %71, ptr %69, align 8
  %72 = icmp eq i32 %71, 0
  br i1 %72, label %73, label %_ZN5Ipopt8SmartPtrIKNS_9IpoptDataEED2Ev.exit22

73:                                               ; preds = %68
  %74 = load ptr, ptr %67, align 8
  %75 = getelementptr inbounds i8, ptr %74, i64 8
  %76 = load ptr, ptr %75, align 8
  call void %76(ptr noundef nonnull align 8 dereferenceable(2232) %67) #17
  br label %_ZN5Ipopt8SmartPtrIKNS_9IpoptDataEED2Ev.exit22

_ZN5Ipopt8SmartPtrIKNS_9IpoptDataEED2Ev.exit22:   ; preds = %_ZN5Ipopt8SmartPtrINS_25IpoptCalculatedQuantitiesEED2Ev.exit20, %68, %73
  resume { ptr, i32 } %56
}